; Function Attrs: nounwind uwtable
define range(i32 -2147483648, 2) i32 @EVP_PKEY_auth_encapsulate_init(ptr noundef %0, ptr noundef %1, ptr noundef %2) local_unnamed_addr #0 {
  %4 = icmp eq ptr %1, null
  br i1 %4, label %7, label %5

5:                                                ; preds = %3
  %6 = tail call fastcc i32 @evp_kem_init(ptr noundef %0, i32 noundef 4096, ptr noundef %2, ptr noundef nonnull %1)
  br label %7

7:                                                ; preds = %3, %5
  %.0 = phi i32 [ %6, %5 ], [ 0, %3 ]
  ret i32 %.0
}